target datalayout = "e-m:e-p270:32:32-p271:32:32-p272:64:64-i64:64-i128:128-f80:128-n8:16:32:64-S128"
target triple = "x86_64-pc-linux-gnu"

%"class.G1NUMAStats::NodeDataArray" = type { i32, i32, ptr }
%class.G1NUMAStats = type { ptr, i32, [2 x ptr] }

; Function Attrs: mustprogress nounwind uwtable
define hidden void @_ZN11G1NUMAStats13NodeDataArray4copyEjPm(ptr noundef nonnull align 8 dereferenceable(16) %0, i32 noundef %1, ptr noundef %2) #1 align 2 {
  %4 = alloca ptr, align 8
  %5 = alloca i32, align 4
  %6 = alloca ptr, align 8
  %7 = alloca i32, align 4
  store ptr %0, ptr %4, align 8
  store i32 %1, ptr %5, align 4
  store ptr %2, ptr %6, align 8
  %8 = load ptr, ptr %4, align 8
  store i32 0, ptr %7, align 4
  br label %9

9:                                                ; preds = %31, %3
  %10 = load i32, ptr %7, align 4
  %11 = getelementptr inbounds %"class.G1NUMAStats::NodeDataArray", ptr %8, i32 0, i32 0
  %12 = load i32, ptr %11, align 8
  %13 = icmp ult i32 %10, %12
  br i1 %13, label %14, label %34

14:                                               ; preds = %9
  %15 = load ptr, ptr %6, align 8
  %16 = load i32, ptr %7, align 4
  %17 = zext i32 %16 to i64
  %18 = getelementptr inbounds i64, ptr %15, i64 %17
  %19 = load i64, ptr %18, align 8
  %20 = getelementptr inbounds %"class.G1NUMAStats::NodeDataArray", ptr %8, i32 0, i32 2
  %21 = load ptr, ptr %20, align 8
  %22 = load i32, ptr %5, align 4
  %23 = zext i32 %22 to i64
  %24 = getelementptr inbounds ptr, ptr %21, i64 %23
  %25 = load ptr, ptr %24, align 8
  %26 = load i32, ptr %7, align 4
  %27 = zext i32 %26 to i64
  %28 = getelementptr inbounds i64, ptr %25, i64 %27
  %29 = load i64, ptr %28, align 8
  %30 = add i64 %29, %19
  store i64 %30, ptr %28, align 8
  br label %31

31:                                               ; preds = %14
  %32 = load i32, ptr %7, align 4
  %33 = add i32 %32, 1
  store i32 %33, ptr %7, align 4
  br label %9, !llvm.loop !14

34:                                               ; preds = %9
  ret void
}

; Function Attrs: mustprogress nounwind uwtable
define hidden void @_ZN11G1NUMAStats4copyENS_13NodeDataItemsEjPm(ptr noundef nonnull align 8 dereferenceable(32) %0, i32 noundef %1, i32 noundef %2, ptr noundef %3) #1 align 2 {
  %5 = alloca ptr, align 8
  %6 = alloca i32, align 4
  %7 = alloca i32, align 4
  %8 = alloca ptr, align 8
  store ptr %0, ptr %5, align 8
  store i32 %1, ptr %6, align 4
  store i32 %2, ptr %7, align 4
  store ptr %3, ptr %8, align 8
  %9 = load ptr, ptr %5, align 8
  %10 = getelementptr inbounds %class.G1NUMAStats, ptr %9, i32 0, i32 2
  %11 = load i32, ptr %6, align 4
  %12 = zext i32 %11 to i64
  %13 = getelementptr inbounds [2 x ptr], ptr %10, i64 0, i64 %12
  %14 = load ptr, ptr %13, align 8
  %15 = load i32, ptr %7, align 4
  %16 = load ptr, ptr %8, align 8
  call void @_ZN11G1NUMAStats13NodeDataArray4copyEjPm(ptr noundef nonnull align 8 dereferenceable(16) %14, i32 noundef %15, ptr noundef %16)
  ret void
}