; Function Attrs: mustprogress nofree norecurse nosync nounwind memory(readwrite, inaccessiblemem: none) uwtable
define hidden void @_ZN11G1NUMAStats4copyENS_13NodeDataItemsEjPm(ptr nocapture noundef nonnull readonly align 8 dereferenceable(32) %0, i32 noundef %1, i32 noundef %2, ptr nocapture noundef readonly %3) local_unnamed_addr #3 align 2 {
  %5 = getelementptr inbounds i8, ptr %0, i64 16
  %6 = zext i32 %1 to i64
  %7 = getelementptr inbounds [2 x ptr], ptr %5, i64 0, i64 %6
  %8 = load ptr, ptr %7, align 8
  %9 = load i32, ptr %8, align 8
  %.not.i = icmp eq i32 %9, 0
  br i1 %.not.i, label %_ZN11G1NUMAStats13NodeDataArray4copyEjPm.exit, label %.lr.ph.i

.lr.ph.i:                                         ; preds = %4
  %10 = getelementptr inbounds i8, ptr %8, i64 8
  %11 = zext i32 %2 to i64
  br label %12

12:                                               ; preds = %12, %.lr.ph.i
  %indvars.iv.i = phi i64 [ 0, %.lr.ph.i ], [ %indvars.iv.next.i, %12 ]
  %13 = getelementptr inbounds i64, ptr %3, i64 %indvars.iv.i
  %14 = load i64, ptr %13, align 8
  %15 = load ptr, ptr %10, align 8
  %16 = getelementptr inbounds ptr, ptr %15, i64 %11
  %17 = load ptr, ptr %16, align 8
  %18 = getelementptr inbounds i64, ptr %17, i64 %indvars.iv.i
  %19 = load i64, ptr %18, align 8
  %20 = add i64 %19, %14
  store i64 %20, ptr %18, align 8
  %indvars.iv.next.i = add nuw nsw i64 %indvars.iv.i, 1
  %21 = load i32, ptr %8, align 8
  %22 = zext i32 %21 to i64
  %23 = icmp ult i64 %indvars.iv.next.i, %22
  br i1 %23, label %12, label %_ZN11G1NUMAStats13NodeDataArray4copyEjPm.exit, !llvm.loop !14

_ZN11G1NUMAStats13NodeDataArray4copyEjPm.exit:    ; preds = %12, %4
  ret void
}